target datalayout = "e-m:e-p270:32:32-p271:32:32-p272:64:64-i64:64-i128:128-f80:128-n8:16:32:64-S128"
target triple = "x86_64-pc-linux-gnu"

@PyExc_TypeError = external global ptr, align 8
@.str.5 = private unnamed_addr constant [45 x i8] c"fcntl expected at least 2 arguments, got %zd\00", align 1
@.str.6 = private unnamed_addr constant [44 x i8] c"fcntl expected at most 3 arguments, got %zd\00", align 1
@.str.7 = private unnamed_addr constant [12 x i8] c"fcntl.fcntl\00", align 1
@.str.8 = private unnamed_addr constant [4 x i8] c"iiO\00", align 1
@.str.9 = private unnamed_addr constant [3 x i8] c"s#\00", align 1
@PyExc_ValueError = external global ptr, align 8
@.str.10 = private unnamed_addr constant [26 x i8] c"fcntl string arg too long\00", align 1
@PyExc_OSError = external global ptr, align 8
@.str.11 = private unnamed_addr constant [98 x i8] c"I;fcntl requires a file or file descriptor, an integer and optionally a third integer or a string\00", align 1

; Function Attrs: nounwind uwtable
define internal ptr @fcntl_fcntl_impl(ptr noundef %0, i32 noundef %1, i32 noundef %2, ptr noundef %3) #0 {
  %5 = alloca ptr, align 8
  %6 = alloca ptr, align 8
  %7 = alloca i32, align 4
  %8 = alloca i32, align 4
  %9 = alloca ptr, align 8
  %10 = alloca i32, align 4
  %11 = alloca i32, align 4
  %12 = alloca ptr, align 8
  %13 = alloca i64, align 8
  %14 = alloca [1024 x i8], align 16
  %15 = alloca i32, align 4
  %16 = alloca i32, align 4
  %17 = alloca i32, align 4
  %18 = alloca ptr, align 8
  %19 = alloca ptr, align 8
  store ptr %0, ptr %6, align 8, !tbaa !3
  store i32 %1, ptr %7, align 4, !tbaa !12
  store i32 %2, ptr %8, align 4, !tbaa !12
  store ptr %3, ptr %9, align 8, !tbaa !3
  call void @llvm.lifetime.start.p0(i64 4, ptr %10) #7
  store i32 0, ptr %10, align 4, !tbaa !12
  call void @llvm.lifetime.start.p0(i64 4, ptr %11) #7
  call void @llvm.lifetime.start.p0(i64 8, ptr %12) #7
  call void @llvm.lifetime.start.p0(i64 8, ptr %13) #7
  call void @llvm.lifetime.start.p0(i64 1024, ptr %14) #7
  call void @llvm.lifetime.start.p0(i64 4, ptr %15) #7
  store i32 0, ptr %15, align 4, !tbaa !12
  %20 = load i32, ptr %7, align 4, !tbaa !12
  %21 = load i32, ptr %8, align 4, !tbaa !12
  %22 = load ptr, ptr %9, align 8, !tbaa !3
  %23 = icmp ne ptr %22, null
  br i1 %23, label %24, label %26

24:                                               ; preds = %4
  %25 = load ptr, ptr %9, align 8, !tbaa !3
  br label %28

26:                                               ; preds = %4
  %27 = call ptr @Py_GetConstantBorrowed(i32 noundef 0)
  br label %28

28:                                               ; preds = %26, %24
  %29 = phi ptr [ %25, %24 ], [ %27, %26 ]
  %30 = call i32 (ptr, ptr, ...) @PySys_Audit(ptr noundef @.str.7, ptr noundef @.str.8, i32 noundef %20, i32 noundef %21, ptr noundef %29)
  %31 = icmp slt i32 %30, 0
  br i1 %31, label %32, label %33

32:                                               ; preds = %28
  store ptr null, ptr %5, align 8
  store i32 1, ptr %16, align 4
  br label %132

33:                                               ; preds = %28
  %34 = load ptr, ptr %9, align 8, !tbaa !3
  %35 = icmp ne ptr %34, null
  br i1 %35, label %36, label %95

36:                                               ; preds = %33
  call void @llvm.lifetime.start.p0(i64 4, ptr %17) #7
  %37 = load ptr, ptr %9, align 8, !tbaa !3
  %38 = call i32 (ptr, ptr, ...) @PyArg_Parse(ptr noundef %37, ptr noundef @.str.9, ptr noundef %12, ptr noundef %13)
  %39 = icmp ne i32 %38, 0
  br i1 %39, label %40, label %85

40:                                               ; preds = %36
  %41 = load i64, ptr %13, align 8, !tbaa !10
  %42 = icmp ugt i64 %41, 1024
  br i1 %42, label %43, label %45

43:                                               ; preds = %40
  %44 = load ptr, ptr @PyExc_ValueError, align 8, !tbaa !3
  call void @PyErr_SetString(ptr noundef %44, ptr noundef @.str.10)
  store ptr null, ptr %5, align 8
  store i32 1, ptr %16, align 4
  br label %92

45:                                               ; preds = %40
  %46 = getelementptr inbounds [1024 x i8], ptr %14, i64 0, i64 0
  %47 = load ptr, ptr %12, align 8, !tbaa !14
  %48 = load i64, ptr %13, align 8, !tbaa !10
  call void @llvm.memcpy.p0.p0.i64(ptr align 16 %46, ptr align 1 %47, i64 %48, i1 false)
  br label %49

49:                                               ; preds = %67, %45
  call void @llvm.lifetime.start.p0(i64 8, ptr %18) #7
  %50 = call ptr @PyEval_SaveThread()
  store ptr %50, ptr %18, align 8, !tbaa !16
  %51 = load i32, ptr %7, align 4, !tbaa !12
  %52 = load i32, ptr %8, align 4, !tbaa !12
  %53 = getelementptr inbounds [1024 x i8], ptr %14, i64 0, i64 0
  %54 = call i32 (i32, i32, ...) @fcntl64(i32 noundef %51, i32 noundef %52, ptr noundef %53)
  store i32 %54, ptr %11, align 4, !tbaa !12
  %55 = load ptr, ptr %18, align 8, !tbaa !16
  call void @PyEval_RestoreThread(ptr noundef %55)
  call void @llvm.lifetime.end.p0(i64 8, ptr %18) #7
  br label %56

56:                                               ; preds = %49
  %57 = load i32, ptr %11, align 4, !tbaa !12
  %58 = icmp eq i32 %57, -1
  br i1 %58, label %59, label %67

59:                                               ; preds = %56
  %60 = call ptr @__errno_location() #8
  %61 = load i32, ptr %60, align 4, !tbaa !12
  %62 = icmp eq i32 %61, 4
  br i1 %62, label %63, label %67

63:                                               ; preds = %59
  %64 = call i32 @PyErr_CheckSignals()
  store i32 %64, ptr %15, align 4, !tbaa !12
  %65 = icmp ne i32 %64, 0
  %66 = xor i1 %65, true
  br label %67

67:                                               ; preds = %63, %59, %56
  %68 = phi i1 [ false, %59 ], [ false, %56 ], [ %66, %63 ]
  br i1 %68, label %49, label %69, !llvm.loop !18

69:                                               ; preds = %67
  %70 = load i32, ptr %11, align 4, !tbaa !12
  %71 = icmp slt i32 %70, 0
  br i1 %71, label %72, label %81

72:                                               ; preds = %69
  %73 = load i32, ptr %15, align 4, !tbaa !12
  %74 = icmp ne i32 %73, 0
  br i1 %74, label %78, label %75

75:                                               ; preds = %72
  %76 = load ptr, ptr @PyExc_OSError, align 8, !tbaa !3
  %77 = call ptr @PyErr_SetFromErrno(ptr noundef %76)
  br label %79

78:                                               ; preds = %72
  br label %79

79:                                               ; preds = %78, %75
  %80 = phi ptr [ %77, %75 ], [ null, %78 ]
  store ptr %80, ptr %5, align 8
  store i32 1, ptr %16, align 4
  br label %92

81:                                               ; preds = %69
  %82 = getelementptr inbounds [1024 x i8], ptr %14, i64 0, i64 0
  %83 = load i64, ptr %13, align 8, !tbaa !10
  %84 = call ptr @PyBytes_FromStringAndSize(ptr noundef %82, i64 noundef %83)
  store ptr %84, ptr %5, align 8
  store i32 1, ptr %16, align 4
  br label %92

85:                                               ; preds = %36
  call void @PyErr_Clear()
  %86 = load ptr, ptr %9, align 8, !tbaa !3
  %87 = call i32 (ptr, ptr, ...) @PyArg_Parse(ptr noundef %86, ptr noundef @.str.11, ptr noundef %10)
  store i32 %87, ptr %17, align 4, !tbaa !12
  %88 = load i32, ptr %17, align 4, !tbaa !12
  %89 = icmp ne i32 %88, 0
  br i1 %89, label %91, label %90

90:                                               ; preds = %85
  store ptr null, ptr %5, align 8
  store i32 1, ptr %16, align 4
  br label %92

91:                                               ; preds = %85
  store i32 0, ptr %16, align 4
  br label %92

92:                                               ; preds = %91, %90, %81, %79, %43
  call void @llvm.lifetime.end.p0(i64 4, ptr %17) #7
  %93 = load i32, ptr %16, align 4
  switch i32 %93, label %132 [
    i32 0, label %94
  ]

94:                                               ; preds = %92
  br label %95

95:                                               ; preds = %94, %33
  br label %96

96:                                               ; preds = %114, %95
  call void @llvm.lifetime.start.p0(i64 8, ptr %19) #7
  %97 = call ptr @PyEval_SaveThread()
  store ptr %97, ptr %19, align 8, !tbaa !16
  %98 = load i32, ptr %7, align 4, !tbaa !12
  %99 = load i32, ptr %8, align 4, !tbaa !12
  %100 = load i32, ptr %10, align 4, !tbaa !12
  %101 = call i32 (i32, i32, ...) @fcntl64(i32 noundef %98, i32 noundef %99, i32 noundef %100)
  store i32 %101, ptr %11, align 4, !tbaa !12
  %102 = load ptr, ptr %19, align 8, !tbaa !16
  call void @PyEval_RestoreThread(ptr noundef %102)
  call void @llvm.lifetime.end.p0(i64 8, ptr %19) #7
  br label %103

103:                                              ; preds = %96
  %104 = load i32, ptr %11, align 4, !tbaa !12
  %105 = icmp eq i32 %104, -1
  br i1 %105, label %106, label %114

106:                                              ; preds = %103
  %107 = call ptr @__errno_location() #8
  %108 = load i32, ptr %107, align 4, !tbaa !12
  %109 = icmp eq i32 %108, 4
  br i1 %109, label %110, label %114

110:                                              ; preds = %106
  %111 = call i32 @PyErr_CheckSignals()
  store i32 %111, ptr %15, align 4, !tbaa !12
  %112 = icmp ne i32 %111, 0
  %113 = xor i1 %112, true
  br label %114

114:                                              ; preds = %110, %106, %103
  %115 = phi i1 [ false, %106 ], [ false, %103 ], [ %113, %110 ]
  br i1 %115, label %96, label %116, !llvm.loop !20

116:                                              ; preds = %114
  %117 = load i32, ptr %11, align 4, !tbaa !12
  %118 = icmp slt i32 %117, 0
  br i1 %118, label %119, label %128

119:                                              ; preds = %116
  %120 = load i32, ptr %15, align 4, !tbaa !12
  %121 = icmp ne i32 %120, 0
  br i1 %121, label %125, label %122

122:                                              ; preds = %119
  %123 = load ptr, ptr @PyExc_OSError, align 8, !tbaa !3
  %124 = call ptr @PyErr_SetFromErrno(ptr noundef %123)
  br label %126

125:                                              ; preds = %119
  br label %126

126:                                              ; preds = %125, %122
  %127 = phi ptr [ %124, %122 ], [ null, %125 ]
  store ptr %127, ptr %5, align 8
  store i32 1, ptr %16, align 4
  br label %132

128:                                              ; preds = %116
  %129 = load i32, ptr %11, align 4, !tbaa !12
  %130 = sext i32 %129 to i64
  %131 = call ptr @PyLong_FromLong(i64 noundef %130)
  store ptr %131, ptr %5, align 8
  store i32 1, ptr %16, align 4
  br label %132

132:                                              ; preds = %128, %126, %92, %32
  call void @llvm.lifetime.end.p0(i64 4, ptr %15) #7
  call void @llvm.lifetime.end.p0(i64 1024, ptr %14) #7
  call void @llvm.lifetime.end.p0(i64 8, ptr %13) #7
  call void @llvm.lifetime.end.p0(i64 8, ptr %12) #7
  call void @llvm.lifetime.end.p0(i64 4, ptr %11) #7
  call void @llvm.lifetime.end.p0(i64 4, ptr %10) #7
  %133 = load ptr, ptr %5, align 8
  ret ptr %133
}

; Function Attrs: nounwind uwtable
define internal ptr @fcntl_fcntl(ptr noundef %0, ptr noundef %1, i64 noundef %2) #0 {
  %4 = alloca ptr, align 8
  %5 = alloca ptr, align 8
  %6 = alloca i64, align 8
  %7 = alloca ptr, align 8
  %8 = alloca i32, align 4
  %9 = alloca i32, align 4
  %10 = alloca ptr, align 8
  store ptr %0, ptr %4, align 8, !tbaa !3
  store ptr %1, ptr %5, align 8, !tbaa !8
  store i64 %2, ptr %6, align 8, !tbaa !10
  call void @llvm.lifetime.start.p0(i64 8, ptr %7) #7
  store ptr null, ptr %7, align 8, !tbaa !3
  call void @llvm.lifetime.start.p0(i64 4, ptr %8) #7
  call void @llvm.lifetime.start.p0(i64 4, ptr %9) #7
  call void @llvm.lifetime.start.p0(i64 8, ptr %10) #7
  store ptr null, ptr %10, align 8, !tbaa !3
  %11 = load i64, ptr %6, align 8, !tbaa !10
  %12 = icmp slt i64 %11, 2
  br i1 %12, label %13, label %17

13:                                               ; preds = %3
  %14 = load ptr, ptr @PyExc_TypeError, align 8, !tbaa !3
  %15 = load i64, ptr %6, align 8, !tbaa !10
  %16 = call ptr (ptr, ptr, ...) @PyErr_Format(ptr noundef %14, ptr noundef @.str.5, i64 noundef %15)
  br label %57

17:                                               ; preds = %3
  %18 = load i64, ptr %6, align 8, !tbaa !10
  %19 = icmp sgt i64 %18, 3
  br i1 %19, label %20, label %24

20:                                               ; preds = %17
  %21 = load ptr, ptr @PyExc_TypeError, align 8, !tbaa !3
  %22 = load i64, ptr %6, align 8, !tbaa !10
  %23 = call ptr (ptr, ptr, ...) @PyErr_Format(ptr noundef %21, ptr noundef @.str.6, i64 noundef %22)
  br label %57

24:                                               ; preds = %17
  %25 = load ptr, ptr %5, align 8, !tbaa !8
  %26 = getelementptr ptr, ptr %25, i64 0
  %27 = load ptr, ptr %26, align 8, !tbaa !3
  %28 = call i32 @PyObject_AsFileDescriptor(ptr noundef %27)
  store i32 %28, ptr %8, align 4, !tbaa !12
  %29 = load i32, ptr %8, align 4, !tbaa !12
  %30 = icmp slt i32 %29, 0
  br i1 %30, label %31, label %32

31:                                               ; preds = %24
  br label %57

32:                                               ; preds = %24
  %33 = load ptr, ptr %5, align 8, !tbaa !8
  %34 = getelementptr ptr, ptr %33, i64 1
  %35 = load ptr, ptr %34, align 8, !tbaa !3
  %36 = call i32 @PyLong_AsInt(ptr noundef %35)
  store i32 %36, ptr %9, align 4, !tbaa !12
  %37 = load i32, ptr %9, align 4, !tbaa !12
  %38 = icmp eq i32 %37, -1
  br i1 %38, label %39, label %43

39:                                               ; preds = %32
  %40 = call ptr @PyErr_Occurred()
  %41 = icmp ne ptr %40, null
  br i1 %41, label %42, label %43

42:                                               ; preds = %39
  br label %57

43:                                               ; preds = %39, %32
  %44 = load i64, ptr %6, align 8, !tbaa !10
  %45 = icmp slt i64 %44, 3
  br i1 %45, label %46, label %47

46:                                               ; preds = %43
  br label %51

47:                                               ; preds = %43
  %48 = load ptr, ptr %5, align 8, !tbaa !8
  %49 = getelementptr ptr, ptr %48, i64 2
  %50 = load ptr, ptr %49, align 8, !tbaa !3
  store ptr %50, ptr %10, align 8, !tbaa !3
  br label %51

51:                                               ; preds = %47, %46
  %52 = load ptr, ptr %4, align 8, !tbaa !3
  %53 = load i32, ptr %8, align 4, !tbaa !12
  %54 = load i32, ptr %9, align 4, !tbaa !12
  %55 = load ptr, ptr %10, align 8, !tbaa !3
  %56 = call ptr @fcntl_fcntl_impl(ptr noundef %52, i32 noundef %53, i32 noundef %54, ptr noundef %55)
  store ptr %56, ptr %7, align 8, !tbaa !3
  br label %57

57:                                               ; preds = %51, %42, %31, %20, %13
  %58 = load ptr, ptr %7, align 8, !tbaa !3
  call void @llvm.lifetime.end.p0(i64 8, ptr %10) #7
  call void @llvm.lifetime.end.p0(i64 4, ptr %9) #7
  call void @llvm.lifetime.end.p0(i64 4, ptr %8) #7
  call void @llvm.lifetime.end.p0(i64 8, ptr %7) #7
  ret ptr %58
}