; Function Attrs: nounwind uwtable
define internal ptr @fcntl_fcntl(ptr readnone captures(none) %0, ptr noundef readonly captures(none) %1, i64 noundef %2) #0 {
  %4 = alloca i32, align 4
  %5 = alloca ptr, align 8
  %6 = alloca i64, align 8
  %7 = alloca [1024 x i8], align 16
  %8 = icmp slt i64 %2, 2
  br i1 %8, label %9, label %12

9:                                                ; preds = %3
  %10 = load ptr, ptr @PyExc_TypeError, align 8, !tbaa !3
  %11 = tail call ptr (ptr, ptr, ...) @PyErr_Format(ptr noundef %10, ptr noundef nonnull @.str.5, i64 noundef %2) #7
  br label %82

12:                                               ; preds = %3
  %13 = icmp samesign ugt i64 %2, 3
  br i1 %13, label %14, label %17

14:                                               ; preds = %12
  %15 = load ptr, ptr @PyExc_TypeError, align 8, !tbaa !3
  %16 = tail call ptr (ptr, ptr, ...) @PyErr_Format(ptr noundef %15, ptr noundef nonnull @.str.6, i64 noundef %2) #7
  br label %82

17:                                               ; preds = %12
  %18 = load ptr, ptr %1, align 8, !tbaa !3
  %19 = tail call i32 @PyObject_AsFileDescriptor(ptr noundef %18) #7
  %20 = icmp slt i32 %19, 0
  br i1 %20, label %82, label %21

21:                                               ; preds = %17
  %22 = getelementptr i8, ptr %1, i64 8
  %23 = load ptr, ptr %22, align 8, !tbaa !3
  %24 = tail call i32 @PyLong_AsInt(ptr noundef %23) #7
  %25 = icmp eq i32 %24, -1
  br i1 %25, label %26, label %28

26:                                               ; preds = %21
  %27 = tail call ptr @PyErr_Occurred() #7
  %.not = icmp eq ptr %27, null
  br i1 %.not, label %28, label %82

28:                                               ; preds = %26, %21
  %29 = icmp eq i64 %2, 2
  br i1 %29, label %.thread, label %30

.thread:                                          ; preds = %28
  call void @llvm.lifetime.start.p0(i64 4, ptr nonnull %4) #7
  store i32 0, ptr %4, align 4, !tbaa !8
  call void @llvm.lifetime.start.p0(i64 8, ptr nonnull %5) #7
  call void @llvm.lifetime.start.p0(i64 8, ptr nonnull %6) #7
  call void @llvm.lifetime.start.p0(i64 1024, ptr nonnull %7) #7
  br label %33

30:                                               ; preds = %28
  %31 = getelementptr i8, ptr %1, i64 16
  %32 = load ptr, ptr %31, align 8, !tbaa !3
  call void @llvm.lifetime.start.p0(i64 4, ptr nonnull %4) #7
  store i32 0, ptr %4, align 4, !tbaa !8
  call void @llvm.lifetime.start.p0(i64 8, ptr nonnull %5) #7
  call void @llvm.lifetime.start.p0(i64 8, ptr nonnull %6) #7
  call void @llvm.lifetime.start.p0(i64 1024, ptr nonnull %7) #7
  %.not.i = icmp eq ptr %32, null
  br i1 %.not.i, label %33, label %.thread.i

33:                                               ; preds = %.thread, %30
  %34 = tail call ptr @Py_GetConstantBorrowed(i32 noundef 0) #7
  %35 = tail call i32 (ptr, ptr, ...) @PySys_Audit(ptr noundef nonnull @.str.7, ptr noundef nonnull @.str.8, i32 noundef range(i32 0, -2147483648) %19, i32 noundef %24, ptr noundef %34) #7
  %36 = icmp slt i32 %35, 0
  br i1 %36, label %fcntl_fcntl_impl.exit, label %.preheader

.thread.i:                                        ; preds = %30
  %37 = tail call i32 (ptr, ptr, ...) @PySys_Audit(ptr noundef nonnull @.str.7, ptr noundef nonnull @.str.8, i32 noundef range(i32 0, -2147483648) %19, i32 noundef %24, ptr noundef nonnull %32) #7
  %38 = icmp slt i32 %37, 0
  br i1 %38, label %fcntl_fcntl_impl.exit, label %.thread1.i

.thread1.i:                                       ; preds = %.thread.i
  %39 = call i32 (ptr, ptr, ...) @PyArg_Parse(ptr noundef nonnull %32, ptr noundef nonnull @.str.9, ptr noundef nonnull %5, ptr noundef nonnull %6) #7
  %.not31.i = icmp eq i32 %39, 0
  br i1 %.not31.i, label %63, label %40

40:                                               ; preds = %.thread1.i
  %41 = load i64, ptr %6, align 8, !tbaa !10
  %42 = icmp ugt i64 %41, 1024
  br i1 %42, label %43, label %45

43:                                               ; preds = %40
  %44 = load ptr, ptr @PyExc_ValueError, align 8, !tbaa !3
  call void @PyErr_SetString(ptr noundef %44, ptr noundef nonnull @.str.10) #7
  br label %fcntl_fcntl_impl.exit

45:                                               ; preds = %40
  %46 = load ptr, ptr %5, align 8, !tbaa !12
  call void @llvm.memcpy.p0.p0.i64(ptr nonnull align 16 %7, ptr align 1 %46, i64 %41, i1 false)
  br label %47

47:                                               ; preds = %55, %45
  %48 = call ptr @PyEval_SaveThread() #7
  %49 = call i32 (i32, i32, ...) @fcntl64(i32 noundef range(i32 0, -2147483648) %19, i32 noundef %24, ptr noundef nonnull %7) #7
  call void @PyEval_RestoreThread(ptr noundef %48) #7
  %50 = icmp eq i32 %49, -1
  br i1 %50, label %51, label %.critedge.i

51:                                               ; preds = %47
  %52 = tail call ptr @__errno_location() #8
  %53 = load i32, ptr %52, align 4, !tbaa !8
  %54 = icmp eq i32 %53, 4
  br i1 %54, label %55, label %.thread8.i

55:                                               ; preds = %51
  %56 = call i32 @PyErr_CheckSignals() #7
  %.not33.i = icmp eq i32 %56, 0
  br i1 %.not33.i, label %47, label %fcntl_fcntl_impl.exit, !llvm.loop !14

.critedge.i:                                      ; preds = %47
  %57 = icmp slt i32 %49, 0
  br i1 %57, label %.thread8.i, label %60

.thread8.i:                                       ; preds = %51, %.critedge.i
  %58 = load ptr, ptr @PyExc_OSError, align 8, !tbaa !3
  %59 = call ptr @PyErr_SetFromErrno(ptr noundef %58) #7
  br label %fcntl_fcntl_impl.exit

60:                                               ; preds = %.critedge.i
  %61 = load i64, ptr %6, align 8, !tbaa !10
  %62 = call ptr @PyBytes_FromStringAndSize(ptr noundef nonnull %7, i64 noundef %61) #7
  br label %fcntl_fcntl_impl.exit

63:                                               ; preds = %.thread1.i
  call void @PyErr_Clear() #7
  %64 = call i32 (ptr, ptr, ...) @PyArg_Parse(ptr noundef nonnull %32, ptr noundef nonnull @.str.11, ptr noundef nonnull %4) #7
  %.not32.not.i = icmp eq i32 %64, 0
  br i1 %.not32.not.i, label %fcntl_fcntl_impl.exit, label %.preheader

.preheader:                                       ; preds = %63, %33
  br label %65

65:                                               ; preds = %.preheader, %74
  %66 = call ptr @PyEval_SaveThread() #7
  %67 = load i32, ptr %4, align 4, !tbaa !8
  %68 = call i32 (i32, i32, ...) @fcntl64(i32 noundef range(i32 0, -2147483648) %19, i32 noundef %24, i32 noundef %67) #7
  call void @PyEval_RestoreThread(ptr noundef %66) #7
  %69 = icmp eq i32 %68, -1
  br i1 %69, label %70, label %.critedge2.i

70:                                               ; preds = %65
  %71 = tail call ptr @__errno_location() #8
  %72 = load i32, ptr %71, align 4, !tbaa !8
  %73 = icmp eq i32 %72, 4
  br i1 %73, label %74, label %.thread20.i

74:                                               ; preds = %70
  %75 = call i32 @PyErr_CheckSignals() #7
  %.not35.i = icmp eq i32 %75, 0
  br i1 %.not35.i, label %65, label %fcntl_fcntl_impl.exit, !llvm.loop !16

.critedge2.i:                                     ; preds = %65
  %76 = icmp slt i32 %68, 0
  br i1 %76, label %.thread20.i, label %79

.thread20.i:                                      ; preds = %70, %.critedge2.i
  %77 = load ptr, ptr @PyExc_OSError, align 8, !tbaa !3
  %78 = call ptr @PyErr_SetFromErrno(ptr noundef %77) #7
  br label %fcntl_fcntl_impl.exit

79:                                               ; preds = %.critedge2.i
  %80 = zext nneg i32 %68 to i64
  %81 = call ptr @PyLong_FromLong(i64 noundef %80) #7
  br label %fcntl_fcntl_impl.exit

fcntl_fcntl_impl.exit:                            ; preds = %55, %74, %33, %.thread.i, %43, %.thread8.i, %60, %63, %.thread20.i, %79
  %.0.i = phi ptr [ %81, %79 ], [ null, %63 ], [ null, %33 ], [ %78, %.thread20.i ], [ null, %.thread.i ], [ %59, %.thread8.i ], [ %62, %60 ], [ null, %43 ], [ null, %74 ], [ null, %55 ]
  call void @llvm.lifetime.end.p0(i64 1024, ptr nonnull %7) #7
  call void @llvm.lifetime.end.p0(i64 8, ptr nonnull %6) #7
  call void @llvm.lifetime.end.p0(i64 8, ptr nonnull %5) #7
  call void @llvm.lifetime.end.p0(i64 4, ptr nonnull %4) #7
  br label %82

82:                                               ; preds = %26, %17, %fcntl_fcntl_impl.exit, %14, %9
  %.014 = phi ptr [ null, %9 ], [ null, %14 ], [ null, %17 ], [ null, %26 ], [ %.0.i, %fcntl_fcntl_impl.exit ]
  ret ptr %.014
}